target datalayout = "e-m:e-p270:32:32-p271:32:32-p272:64:64-i64:64-i128:128-f80:128-n8:16:32:64-S128"
target triple = "x86_64-pc-linux-gnu"

%struct.IOStreamFDData = type { i32, i8, i8 }

@.str.22 = private unnamed_addr constant [32 x i8] c"Error writing to datastream: %s\00", align 1

; Function Attrs: nounwind uwtable
define internal i64 @fd_write(ptr noundef %0, ptr noundef %1, i64 noundef %2, ptr noundef %3) #0 {
  %5 = alloca ptr, align 8
  %6 = alloca ptr, align 8
  %7 = alloca i64, align 8
  %8 = alloca ptr, align 8
  %9 = alloca ptr, align 8
  %10 = alloca i64, align 8
  store ptr %0, ptr %5, align 8
  store ptr %1, ptr %6, align 8
  store i64 %2, ptr %7, align 8
  store ptr %3, ptr %8, align 8
  call void @llvm.lifetime.start.p0(i64 8, ptr %9) #11
  %11 = load ptr, ptr %5, align 8
  store ptr %11, ptr %9, align 8
  call void @llvm.lifetime.start.p0(i64 8, ptr %10) #11
  br label %12

12:                                               ; preds = %26, %4
  %13 = load ptr, ptr %9, align 8
  %14 = getelementptr inbounds nuw %struct.IOStreamFDData, ptr %13, i32 0, i32 0
  %15 = load i32, ptr %14, align 4
  %16 = load ptr, ptr %6, align 8
  %17 = load i64, ptr %7, align 8
  %18 = call i64 @write(i32 noundef %15, ptr noundef %16, i64 noundef %17)
  store i64 %18, ptr %10, align 8
  br label %19

19:                                               ; preds = %12
  %20 = load i64, ptr %10, align 8
  %21 = icmp slt i64 %20, 0
  br i1 %21, label %22, label %26

22:                                               ; preds = %19
  %23 = call ptr @__errno_location() #13
  %24 = load i32, ptr %23, align 4
  %25 = icmp eq i32 %24, 4
  br label %26

26:                                               ; preds = %22, %19
  %27 = phi i1 [ false, %19 ], [ %25, %22 ]
  br i1 %27, label %12, label %28, !llvm.loop !7

28:                                               ; preds = %26
  %29 = load i64, ptr %10, align 8
  %30 = icmp slt i64 %29, 0
  br i1 %30, label %31, label %43

31:                                               ; preds = %28
  %32 = call ptr @__errno_location() #13
  %33 = load i32, ptr %32, align 4
  %34 = icmp eq i32 %33, 11
  br i1 %34, label %35, label %37

35:                                               ; preds = %31
  %36 = load ptr, ptr %8, align 8
  store i32 3, ptr %36, align 4
  br label %42

37:                                               ; preds = %31
  %38 = call ptr @__errno_location() #13
  %39 = load i32, ptr %38, align 4
  %40 = call ptr @strerror(i32 noundef %39) #11
  %41 = call zeroext i1 (ptr, ...) @SDL_SetError_REAL(ptr noundef @.str.22, ptr noundef %40)
  br label %42

42:                                               ; preds = %37, %35
  store i64 0, ptr %10, align 8
  br label %43

43:                                               ; preds = %42, %28
  %44 = load i64, ptr %10, align 8
  call void @llvm.lifetime.end.p0(i64 8, ptr %10) #11
  call void @llvm.lifetime.end.p0(i64 8, ptr %9) #11
  ret i64 %44
}