; Function Attrs: nounwind uwtable
define internal range(i64 0, -9223372036854775808) i64 @fd_write(ptr noundef readonly captures(none) %0, ptr noundef readonly captures(none) %1, i64 noundef %2, ptr noundef writeonly captures(none) %3) #0 {
  br label %5

5:                                                ; preds = %9, %4
  %6 = load i32, ptr %0, align 4
  %7 = tail call i64 @write(i32 noundef %6, ptr noundef %1, i64 noundef %2) #18
  %8 = icmp slt i64 %7, 0
  br i1 %8, label %9, label %.critedge9

9:                                                ; preds = %5
  %10 = tail call ptr @__errno_location() #19
  %11 = load i32, ptr %10, align 4
  switch i32 %11, label %13 [
    i32 4, label %5
    i32 11, label %12
  ]

12:                                               ; preds = %9
  store i32 3, ptr %3, align 4
  br label %.critedge9

13:                                               ; preds = %9
  %14 = tail call ptr @strerror(i32 noundef %11) #18
  %15 = tail call zeroext i1 (ptr, ...) @SDL_SetError_REAL(ptr noundef nonnull @.str.22, ptr noundef %14) #18
  br label %.critedge9

.critedge9:                                       ; preds = %5, %12, %13
  %.0 = phi i64 [ 0, %13 ], [ 0, %12 ], [ %7, %5 ]
  ret i64 %.0
}